; Function Attrs: nounwind uwtable
define void @Dau_DsdPrintFromTruthFile(ptr noundef captures(none) %0, ptr noundef readonly captures(none) %1, i32 noundef %2) local_unnamed_addr #3 {
  %4 = alloca [2000 x i8], align 16
  %5 = alloca [64 x i64], align 16
  call void @llvm.lifetime.start.p0(i64 2000, ptr nonnull %4) #29
  call void @llvm.lifetime.start.p0(i64 512, ptr nonnull %5) #29
  %6 = icmp slt i32 %2, 7
  %7 = add nsw i32 %2, -6
  %8 = shl nuw i32 1, %7
  %9 = select i1 %6, i32 1, i32 %8
  %10 = icmp sgt i32 %9, 0
  br i1 %10, label %.lr.ph18.preheader.i, label %Abc_TtCopy.exit

.lr.ph18.preheader.i:                             ; preds = %3
  %wide.trip.count24.i = zext nneg i32 %9 to i64
  %11 = shl nuw nsw i64 %wide.trip.count24.i, 3
  call void @llvm.memcpy.p0.p0.i64(ptr noundef nonnull align 16 dereferenceable(1) %5, ptr noundef nonnull align 8 dereferenceable(1) %1, i64 %11, i1 false), !tbaa !29
  br label %Abc_TtCopy.exit

Abc_TtCopy.exit:                                  ; preds = %.lr.ph18.preheader.i, %3
  %12 = call i32 @Dau_DsdDecompose(ptr noundef nonnull %5, i32 noundef %2, i32 noundef 0, i32 noundef 1, ptr noundef nonnull %4)
  %13 = call i32 (ptr, ptr, ...) @fprintf(ptr noundef %0, ptr noundef nonnull @.str.6, ptr noundef nonnull %4) #29
  call void @llvm.lifetime.end.p0(i64 512, ptr nonnull %5) #29
  call void @llvm.lifetime.end.p0(i64 2000, ptr nonnull %4) #29
  ret void
}